; Function Attrs: nounwind uwtable
define internal fastcc i64 @calculate_indexes_size(ptr noundef nonnull %0) unnamed_addr #0 {
  %2 = alloca [1024 x i8], align 16
  %3 = alloca %struct.stat, align 8
  %4 = getelementptr inbounds nuw i8, ptr %0, i64 56
  %5 = load ptr, ptr %4, align 8
  %6 = getelementptr inbounds nuw i8, ptr %5, i64 112
  %7 = load i8, ptr %6, align 4, !range !11, !noundef !12
  %8 = trunc nuw i8 %7 to i1
  br i1 %8, label %9, label %59

9:                                                ; preds = %1
  %10 = tail call ptr @RelationGetIndexList(ptr noundef nonnull %0) #9
  %.not = icmp eq ptr %10, null
  br i1 %.not, label %._crit_edge, label %.lr.ph

.lr.ph:                                           ; preds = %9
  %11 = getelementptr inbounds nuw i8, ptr %10, i64 4
  %12 = getelementptr inbounds nuw i8, ptr %10, i64 16
  %13 = getelementptr inbounds nuw i8, ptr %3, i64 48
  %14 = load i32, ptr %11, align 4
  %15 = icmp sgt i32 %14, 0
  br i1 %15, label %.lr.ph36, label %._crit_edge

._crit_edge:                                      ; preds = %55, %.lr.ph, %9
  %.1.lcssa = phi i64 [ 0, %9 ], [ 0, %.lr.ph ], [ %53, %55 ]
  call void @list_free(ptr noundef %10) #9
  br label %59

.lr.ph36:                                         ; preds = %.lr.ph, %55
  %.12835 = phi i64 [ %53, %55 ], [ 0, %.lr.ph ]
  %indvars.iv34 = phi i64 [ %indvars.iv.next, %55 ], [ 0, %.lr.ph ]
  %16 = load ptr, ptr %12, align 8
  %17 = getelementptr inbounds nuw %union.ListCell, ptr %16, i64 %indvars.iv34
  %18 = load i32, ptr %17, align 8
  %19 = call ptr @relation_open(i32 noundef %18, i32 noundef 1) #9
  %20 = getelementptr inbounds nuw i8, ptr %19, i64 28
  %21 = getelementptr inbounds nuw i8, ptr %19, i64 4
  %22 = getelementptr inbounds nuw i8, ptr %19, i64 8
  br label %23

23:                                               ; preds = %.lr.ph36, %calculate_relation_size.exit
  %.026 = phi i32 [ 0, %.lr.ph36 ], [ %54, %calculate_relation_size.exit ]
  %.225 = phi i64 [ %.12835, %.lr.ph36 ], [ %53, %calculate_relation_size.exit ]
  %24 = load i32, ptr %20, align 4
  call void @llvm.lifetime.start.p0(i64 1024, ptr nonnull %2) #9
  %25 = load i32, ptr %21, align 4
  %26 = load i32, ptr %19, align 4
  %27 = load i32, ptr %22, align 4
  %28 = call ptr @GetRelationPath(i32 noundef %25, i32 noundef %26, i32 noundef %27, i32 noundef %24, i32 noundef %.026) #9
  br label %29

29:                                               ; preds = %49, %23
  %.013.i = phi i64 [ 0, %23 ], [ %51, %49 ]
  %.012.i = phi i32 [ 0, %23 ], [ %52, %49 ]
  call void @llvm.lifetime.start.p0(i64 144, ptr nonnull %3) #9
  %30 = load volatile i32, ptr @InterruptPending, align 4
  %.not.i = icmp eq i32 %30, 0
  br i1 %.not.i, label %32, label %31, !prof !4

31:                                               ; preds = %29
  call void @ProcessInterrupts() #9
  br label %32

32:                                               ; preds = %31, %29
  %33 = icmp eq i32 %.012.i, 0
  br i1 %33, label %34, label %36

34:                                               ; preds = %32
  %35 = call i32 (ptr, i64, ptr, ...) @pg_snprintf(ptr noundef nonnull %2, i64 noundef 1024, ptr noundef nonnull @.str.20, ptr noundef %28) #9
  br label %38

36:                                               ; preds = %32
  %37 = call i32 (ptr, i64, ptr, ...) @pg_snprintf(ptr noundef nonnull %2, i64 noundef 1024, ptr noundef nonnull @.str.21, ptr noundef %28, i32 noundef %.012.i) #9
  br label %38

38:                                               ; preds = %36, %34
  %39 = call i32 @stat(ptr noundef nonnull %2, ptr noundef nonnull %3) #9
  %40 = icmp slt i32 %39, 0
  br i1 %40, label %41, label %49

41:                                               ; preds = %38
  %42 = tail call ptr @__errno_location() #11
  %43 = load i32, ptr %42, align 4
  %44 = icmp eq i32 %43, 2
  br i1 %44, label %calculate_relation_size.exit, label %45

45:                                               ; preds = %41
  %46 = call zeroext i1 @errstart_cold(i32 noundef 21, ptr noundef null) #10
  call void @llvm.assume(i1 %46)
  %47 = call i32 @errcode_for_file_access() #9
  %48 = call i32 (ptr, ...) @errmsg(ptr noundef nonnull @.str.16, ptr noundef nonnull %2) #9
  call void @errfinish(ptr noundef nonnull @.str.1, i32 noundef 355, ptr noundef nonnull @__func__.calculate_relation_size) #9
  unreachable

49:                                               ; preds = %38
  %50 = load i64, ptr %13, align 8
  %51 = add i64 %50, %.013.i
  call void @llvm.lifetime.end.p0(i64 144, ptr nonnull %3) #9
  %52 = add i32 %.012.i, 1
  br label %29

calculate_relation_size.exit:                     ; preds = %41
  call void @llvm.lifetime.end.p0(i64 144, ptr nonnull %3) #9
  call void @llvm.lifetime.end.p0(i64 1024, ptr nonnull %2) #9
  %53 = add i64 %.013.i, %.225
  %54 = add nuw nsw i32 %.026, 1
  %exitcond.not = icmp eq i32 %54, 4
  br i1 %exitcond.not, label %55, label %23, !llvm.loop !13

55:                                               ; preds = %calculate_relation_size.exit
  call void @relation_close(ptr noundef nonnull %19, i32 noundef 1) #9
  %indvars.iv.next = add nuw nsw i64 %indvars.iv34, 1
  %56 = load i32, ptr %11, align 4
  %57 = sext i32 %56 to i64
  %58 = icmp slt i64 %indvars.iv.next, %57
  br i1 %58, label %.lr.ph36, label %._crit_edge

59:                                               ; preds = %._crit_edge, %1
  %.017 = phi i64 [ %.1.lcssa, %._crit_edge ], [ 0, %1 ]
  ret i64 %.017
}